target datalayout = "e-m:e-p270:32:32-p271:32:32-p272:64:64-i64:64-i128:128-f80:128-n8:16:32:64-S128"
target triple = "x86_64-pc-linux-gnu"

%struct.rb_code_location_struct = type { %struct.rb_code_position_struct, %struct.rb_code_position_struct }
%struct.rb_code_position_struct = type { i32, i32 }
%struct.lex_context = type { i16, [2 x i8] }
%struct.parser_params = type { ptr, ptr, %struct.anon.12, i64, i64, i32, i32, i32, i32, i32, ptr, ptr, ptr, ptr, i32, i32, ptr, i64, ptr, ptr, ptr, ptr, i64, i64, %struct.anon.13, ptr, i32, ptr, i32, i64, %struct.lex_context, ptr, ptr, ptr, i16, i64, i64, i64, i64, i64, i64 }
%struct.anon.12 = type { ptr, ptr, ptr, %struct.parser_string_buffer, ptr, ptr, ptr, ptr, ptr, ptr, i32, i32, i32, i32 }
%struct.parser_string_buffer = type { ptr, ptr }
%struct.anon.13 = type { ptr, i32, i32, i32, i32 }

@.str.5 = private unnamed_addr constant [4 x i8] c"%s \00", align 1
@stderr = external global ptr, align 8
@.str.7 = private unnamed_addr constant [2 x i8] c"\0A\00", align 1
@.str.71 = private unnamed_addr constant [8 x i8] c"%s %s (\00", align 1
@.str.72 = private unnamed_addr constant [6 x i8] c"token\00", align 1
@.str.73 = private unnamed_addr constant [6 x i8] c"nterm\00", align 1
@.str.74 = private unnamed_addr constant [12 x i8] c"%d.%d-%d.%d\00", align 1
@.str.75 = private unnamed_addr constant [3 x i8] c": \00", align 1
@.str.76 = private unnamed_addr constant [2 x i8] c")\00", align 1
@.str.569 = private unnamed_addr constant [9 x i8] c"Deleting\00", align 1

; Function Attrs: nounwind sspstrong uwtable
define internal ptr @yysymbol_name(i32 noundef %0) #0 {
  %2 = alloca i32, align 4
  store i32 %0, ptr %2, align 4, !tbaa !14
  %3 = load i32, ptr %2, align 4, !tbaa !14
  %4 = sext i32 %3 to i64
  %5 = getelementptr inbounds [463 x ptr], ptr @yytname, i64 0, i64 %4
  %6 = load ptr, ptr %5, align 8, !tbaa !24
  ret ptr %6
}

; Function Attrs: nounwind sspstrong uwtable
define internal void @yy_symbol_print(ptr noundef %0, i32 noundef %1, ptr noundef %2, ptr noundef %3, ptr noundef %4) #0 {
  %6 = alloca ptr, align 8
  %7 = alloca i32, align 4
  %8 = alloca ptr, align 8
  %9 = alloca ptr, align 8
  %10 = alloca ptr, align 8
  store ptr %0, ptr %6, align 8, !tbaa !30
  store i32 %1, ptr %7, align 4, !tbaa !14
  store ptr %2, ptr %8, align 8, !tbaa !20
  store ptr %3, ptr %9, align 8, !tbaa !22
  store ptr %4, ptr %10, align 8, !tbaa !6
  %11 = load ptr, ptr %10, align 8, !tbaa !6
  %12 = load i32, ptr %7, align 4, !tbaa !14
  %13 = icmp slt i32 %12, 162
  %14 = select i1 %13, ptr @.str.72, ptr @.str.73
  %15 = load i32, ptr %7, align 4, !tbaa !14
  %16 = call ptr @yysymbol_name(i32 noundef %15)
  call void (ptr, ptr, ...) @rb_parser_printf(ptr noundef %11, ptr noundef @.str.71, ptr noundef %14, ptr noundef %16)
  %17 = load ptr, ptr %10, align 8, !tbaa !6
  %18 = load ptr, ptr %9, align 8, !tbaa !22
  %19 = getelementptr inbounds nuw %struct.rb_code_location_struct, ptr %18, i32 0, i32 0
  %20 = getelementptr inbounds nuw %struct.rb_code_position_struct, ptr %19, i32 0, i32 0
  %21 = load i32, ptr %20, align 4, !tbaa !293
  %22 = load ptr, ptr %9, align 8, !tbaa !22
  %23 = getelementptr inbounds nuw %struct.rb_code_location_struct, ptr %22, i32 0, i32 0
  %24 = getelementptr inbounds nuw %struct.rb_code_position_struct, ptr %23, i32 0, i32 1
  %25 = load i32, ptr %24, align 4, !tbaa !221
  %26 = load ptr, ptr %9, align 8, !tbaa !22
  %27 = getelementptr inbounds nuw %struct.rb_code_location_struct, ptr %26, i32 0, i32 1
  %28 = getelementptr inbounds nuw %struct.rb_code_position_struct, ptr %27, i32 0, i32 0
  %29 = load i32, ptr %28, align 4, !tbaa !154
  %30 = load ptr, ptr %9, align 8, !tbaa !22
  %31 = getelementptr inbounds nuw %struct.rb_code_location_struct, ptr %30, i32 0, i32 1
  %32 = getelementptr inbounds nuw %struct.rb_code_position_struct, ptr %31, i32 0, i32 1
  %33 = load i32, ptr %32, align 4, !tbaa !222
  call void (ptr, ptr, ...) @rb_parser_printf(ptr noundef %17, ptr noundef @.str.74, i32 noundef %21, i32 noundef %25, i32 noundef %29, i32 noundef %33)
  %34 = load ptr, ptr %10, align 8, !tbaa !6
  call void (ptr, ptr, ...) @rb_parser_printf(ptr noundef %34, ptr noundef @.str.75)
  %35 = load ptr, ptr %6, align 8, !tbaa !30
  %36 = load i32, ptr %7, align 4, !tbaa !14
  %37 = load ptr, ptr %8, align 8, !tbaa !20
  %38 = load ptr, ptr %9, align 8, !tbaa !22
  %39 = load ptr, ptr %10, align 8, !tbaa !6
  call void @yy_symbol_value_print(ptr noundef %35, i32 noundef %36, ptr noundef %37, ptr noundef %38, ptr noundef %39)
  %40 = load ptr, ptr %10, align 8, !tbaa !6
  call void (ptr, ptr, ...) @rb_parser_printf(ptr noundef %40, ptr noundef @.str.76)
  ret void
}

; Function Attrs: nounwind sspstrong uwtable
define internal void @yydestruct(ptr noundef %0, i32 noundef %1, ptr noundef %2, ptr noundef %3, ptr noundef %4) #0 {
  %6 = alloca ptr, align 8
  %7 = alloca i32, align 4
  %8 = alloca ptr, align 8
  %9 = alloca ptr, align 8
  %10 = alloca ptr, align 8
  store ptr %0, ptr %6, align 8, !tbaa !24
  store i32 %1, ptr %7, align 4, !tbaa !14
  store ptr %2, ptr %8, align 8, !tbaa !20
  store ptr %3, ptr %9, align 8, !tbaa !22
  store ptr %4, ptr %10, align 8, !tbaa !6
  %11 = load ptr, ptr %6, align 8, !tbaa !24
  %12 = icmp ne ptr %11, null
  br i1 %12, label %14, label %13

13:                                               ; preds = %5
  store ptr @.str.569, ptr %6, align 8, !tbaa !24
  br label %14

14:                                               ; preds = %13, %5
  br label %15

15:                                               ; preds = %14
  %16 = load ptr, ptr %10, align 8, !tbaa !6
  %17 = getelementptr inbounds nuw %struct.parser_params, ptr %16, i32 0, i32 34
  %18 = load i16, ptr %17, align 8
  %19 = lshr i16 %18, 5
  %20 = and i16 %19, 1
  %21 = zext i16 %20 to i32
  %22 = icmp ne i32 %21, 0
  br i1 %22, label %23, label %32

23:                                               ; preds = %15
  %24 = load ptr, ptr %10, align 8, !tbaa !6
  %25 = load ptr, ptr %6, align 8, !tbaa !24
  call void (ptr, ptr, ...) @rb_parser_printf(ptr noundef %24, ptr noundef @.str.5, ptr noundef %25)
  %26 = load ptr, ptr @stderr, align 8, !tbaa !30
  %27 = load i32, ptr %7, align 4, !tbaa !14
  %28 = load ptr, ptr %8, align 8, !tbaa !20
  %29 = load ptr, ptr %9, align 8, !tbaa !22
  %30 = load ptr, ptr %10, align 8, !tbaa !6
  call void @yy_symbol_print(ptr noundef %26, i32 noundef %27, ptr noundef %28, ptr noundef %29, ptr noundef %30)
  %31 = load ptr, ptr %10, align 8, !tbaa !6
  call void (ptr, ptr, ...) @rb_parser_printf(ptr noundef %31, ptr noundef @.str.7)
  br label %32

32:                                               ; preds = %23, %15
  br label %33

33:                                               ; preds = %32
  %34 = load i32, ptr %7, align 4, !tbaa !14
  switch i32 %34, label %59 [
    i32 256, label %35
    i32 257, label %47
  ]

35:                                               ; preds = %33
  %36 = load ptr, ptr %8, align 8, !tbaa !20
  %37 = load ptr, ptr %36, align 8, !tbaa !12
  %38 = icmp ne ptr %37, null
  br i1 %38, label %39, label %46

39:                                               ; preds = %35
  %40 = load ptr, ptr %8, align 8, !tbaa !20
  %41 = load ptr, ptr %40, align 8, !tbaa !12
  %42 = icmp ne ptr %41, inttoptr (i64 1 to ptr)
  br i1 %42, label %43, label %46

43:                                               ; preds = %39
  %44 = load ptr, ptr %8, align 8, !tbaa !20
  %45 = load ptr, ptr %44, align 8, !tbaa !12
  call void @rb_st_free_table(ptr noundef %45)
  br label %46

46:                                               ; preds = %43, %39, %35
  br label %60

47:                                               ; preds = %33
  %48 = load ptr, ptr %8, align 8, !tbaa !20
  %49 = load ptr, ptr %48, align 8, !tbaa !12
  %50 = icmp ne ptr %49, null
  br i1 %50, label %51, label %58

51:                                               ; preds = %47
  %52 = load ptr, ptr %8, align 8, !tbaa !20
  %53 = load ptr, ptr %52, align 8, !tbaa !12
  %54 = icmp ne ptr %53, inttoptr (i64 1 to ptr)
  br i1 %54, label %55, label %58

55:                                               ; preds = %51
  %56 = load ptr, ptr %8, align 8, !tbaa !20
  %57 = load ptr, ptr %56, align 8, !tbaa !12
  call void @rb_st_free_table(ptr noundef %57)
  br label %58

58:                                               ; preds = %55, %51, %47
  br label %60

59:                                               ; preds = %33
  br label %60

60:                                               ; preds = %59, %58, %46
  ret void
}