; Function Attrs: nounwind sspstrong uwtable
define internal fastcc void @yydestruct(ptr noundef %0, i32 noundef range(i32 -32768, 32768) %1, ptr noundef nonnull %2, ptr noundef nonnull readonly captures(none) %3, ptr noundef %4) unnamed_addr #0 {
  %6 = getelementptr inbounds nuw i8, ptr %4, i64 360
  %7 = load i16, ptr %6, align 8
  %8 = and i16 %7, 32
  %.not16 = icmp eq i16 %8, 0
  br i1 %.not16, label %22, label %9

9:                                                ; preds = %5
  %.not = icmp eq ptr %0, null
  %spec.store.select = select i1 %.not, ptr @.str.569, ptr %0
  tail call void (ptr, ptr, ...) @rb_parser_printf(ptr noundef nonnull %4, ptr noundef nonnull @.str.5, ptr noundef nonnull %spec.store.select) #31
  %10 = icmp slt i32 %1, 162
  %11 = select i1 %10, ptr @.str.72, ptr @.str.73
  %12 = sext i32 %1 to i64
  %13 = getelementptr inbounds [463 x ptr], ptr @yytname, i64 0, i64 %12
  %14 = load ptr, ptr %13, align 8, !tbaa !50
  tail call void (ptr, ptr, ...) @rb_parser_printf(ptr noundef nonnull %4, ptr noundef nonnull @.str.71, ptr noundef nonnull %11, ptr noundef %14) #31
  %15 = load i32, ptr %3, align 4, !tbaa !51
  %16 = getelementptr inbounds nuw i8, ptr %3, i64 4
  %17 = load i32, ptr %16, align 4, !tbaa !54
  %18 = getelementptr inbounds nuw i8, ptr %3, i64 8
  %19 = load i32, ptr %18, align 4, !tbaa !55
  %20 = getelementptr inbounds nuw i8, ptr %3, i64 12
  %21 = load i32, ptr %20, align 4, !tbaa !56
  tail call void (ptr, ptr, ...) @rb_parser_printf(ptr noundef nonnull %4, ptr noundef nonnull @.str.74, i32 noundef %15, i32 noundef %17, i32 noundef %19, i32 noundef %21) #31
  tail call void (ptr, ptr, ...) @rb_parser_printf(ptr noundef nonnull %4, ptr noundef nonnull @.str.75) #31
  tail call fastcc void @yy_symbol_value_print(i32 noundef range(i32 -32768, 32768) %1, ptr noundef nonnull %2, ptr noundef nonnull %4)
  tail call void (ptr, ptr, ...) @rb_parser_printf(ptr noundef nonnull %4, ptr noundef nonnull @.str.76) #31
  tail call void (ptr, ptr, ...) @rb_parser_printf(ptr noundef nonnull %4, ptr noundef nonnull @.str.7) #31
  br label %22

22:                                               ; preds = %5, %9
  switch i32 %1, label %27 [
    i32 256, label %23
    i32 257, label %25
  ]

23:                                               ; preds = %22
  %24 = load ptr, ptr %2, align 8, !tbaa !6
  %switch = icmp ult ptr %24, inttoptr (i64 2 to ptr)
  br i1 %switch, label %27, label %.sink.split

25:                                               ; preds = %22
  %26 = load ptr, ptr %2, align 8, !tbaa !6
  %switch22 = icmp ult ptr %26, inttoptr (i64 2 to ptr)
  br i1 %switch22, label %27, label %.sink.split

.sink.split:                                      ; preds = %25, %23
  %.sink = phi ptr [ %24, %23 ], [ %26, %25 ]
  tail call void @rb_st_free_table(ptr noundef nonnull %.sink) #31
  br label %27

27:                                               ; preds = %.sink.split, %25, %23, %22
  ret void
}